; Function Attrs: nounwind uwtable
define noundef ptr @TS_REQ_to_TS_VERIFY_CTX(ptr noundef readonly captures(address_is_null) %0, ptr noundef %1) local_unnamed_addr #0 {
  %.not = icmp eq ptr %0, null
  br i1 %.not, label %3, label %4

3:                                                ; preds = %2
  tail call void @OPENSSL_die(ptr noundef nonnull @.str.2, ptr noundef nonnull @.str, i32 noundef 146) #8
  unreachable

4:                                                ; preds = %2
  %.not39 = icmp eq ptr %1, null
  br i1 %.not39, label %21, label %TS_VERIFY_CTX_cleanup.exit

TS_VERIFY_CTX_cleanup.exit:                       ; preds = %4
  %5 = getelementptr inbounds nuw i8, ptr %1, i64 8
  %6 = load ptr, ptr %5, align 8, !tbaa !3
  tail call void @X509_STORE_free(ptr noundef %6) #7
  %7 = getelementptr inbounds nuw i8, ptr %1, i64 16
  %8 = load ptr, ptr %7, align 8, !tbaa !17
  tail call void @OSSL_STACK_OF_X509_free(ptr noundef %8) #7
  %9 = getelementptr inbounds nuw i8, ptr %1, i64 24
  %10 = load ptr, ptr %9, align 8, !tbaa !18
  tail call void @ASN1_OBJECT_free(ptr noundef %10) #7
  %11 = getelementptr inbounds nuw i8, ptr %1, i64 32
  %12 = load ptr, ptr %11, align 8, !tbaa !19
  tail call void @X509_ALGOR_free(ptr noundef %12) #7
  %13 = getelementptr inbounds nuw i8, ptr %1, i64 40
  %14 = load ptr, ptr %13, align 8, !tbaa !20
  tail call void @CRYPTO_free(ptr noundef %14, ptr noundef nonnull @.str, i32 noundef 126) #7
  %15 = getelementptr inbounds nuw i8, ptr %1, i64 56
  %16 = load ptr, ptr %15, align 8, !tbaa !21
  tail call void @BIO_free_all(ptr noundef %16) #7
  %17 = getelementptr inbounds nuw i8, ptr %1, i64 64
  %18 = load ptr, ptr %17, align 8, !tbaa !22
  tail call void @ASN1_INTEGER_free(ptr noundef %18) #7
  %19 = getelementptr inbounds nuw i8, ptr %1, i64 72
  %20 = load ptr, ptr %19, align 8, !tbaa !23
  tail call void @GENERAL_NAME_free(ptr noundef %20) #7
  tail call void @llvm.memset.p0.i64(ptr noundef nonnull align 8 dereferenceable(80) %1, i8 0, i64 80, i1 false)
  br label %24

21:                                               ; preds = %4
  %22 = tail call noalias ptr @CRYPTO_zalloc(i64 noundef 80, ptr noundef nonnull @.str, i32 noundef 17) #7
  %23 = icmp eq ptr %22, null
  br i1 %23, label %96, label %24

24:                                               ; preds = %21, %TS_VERIFY_CTX_cleanup.exit
  %.031 = phi ptr [ %1, %TS_VERIFY_CTX_cleanup.exit ], [ %22, %21 ]
  store i32 110, ptr %.031, align 8, !tbaa !24
  %25 = getelementptr inbounds nuw i8, ptr %0, i64 16
  %26 = load ptr, ptr %25, align 8, !tbaa !26
  %.not40 = icmp eq ptr %26, null
  br i1 %.not40, label %31, label %27

27:                                               ; preds = %24
  %28 = tail call ptr @OBJ_dup(ptr noundef nonnull %26) #7
  %29 = getelementptr inbounds nuw i8, ptr %.031, i64 24
  store ptr %28, ptr %29, align 8, !tbaa !18
  %30 = icmp eq ptr %28, null
  br i1 %30, label %63, label %32

31:                                               ; preds = %24
  store i32 106, ptr %.031, align 8, !tbaa !24
  br label %32

32:                                               ; preds = %27, %31
  %33 = getelementptr inbounds nuw i8, ptr %0, i64 8
  %34 = load ptr, ptr %33, align 8, !tbaa !30
  %35 = load ptr, ptr %34, align 8, !tbaa !31
  %36 = tail call ptr @X509_ALGOR_dup(ptr noundef %35) #7
  %37 = getelementptr inbounds nuw i8, ptr %.031, i64 32
  store ptr %36, ptr %37, align 8, !tbaa !19
  %38 = icmp eq ptr %36, null
  br i1 %38, label %63, label %39

39:                                               ; preds = %32
  %40 = getelementptr inbounds nuw i8, ptr %34, i64 8
  %41 = load ptr, ptr %40, align 8, !tbaa !33
  %42 = tail call i32 @ASN1_STRING_length(ptr noundef %41) #7
  %43 = getelementptr inbounds nuw i8, ptr %.031, i64 48
  store i32 %42, ptr %43, align 8, !tbaa !25
  %44 = icmp eq i32 %42, 0
  br i1 %44, label %63, label %45

45:                                               ; preds = %39
  %46 = zext i32 %42 to i64
  %47 = tail call noalias ptr @CRYPTO_malloc(i64 noundef %46, ptr noundef nonnull @.str, i32 noundef 168) #7
  %48 = getelementptr inbounds nuw i8, ptr %.031, i64 40
  store ptr %47, ptr %48, align 8, !tbaa !20
  %49 = icmp eq ptr %47, null
  br i1 %49, label %63, label %50

50:                                               ; preds = %45
  %51 = tail call ptr @ASN1_STRING_get0_data(ptr noundef %41) #7
  %52 = load i32, ptr %43, align 8, !tbaa !25
  %53 = zext i32 %52 to i64
  tail call void @llvm.memcpy.p0.p0.i64(ptr nonnull align 1 %47, ptr align 1 %51, i64 %53, i1 false)
  %54 = getelementptr inbounds nuw i8, ptr %0, i64 24
  %55 = load ptr, ptr %54, align 8, !tbaa !34
  %.not41 = icmp eq ptr %55, null
  br i1 %.not41, label %60, label %56

56:                                               ; preds = %50
  %57 = tail call ptr @ASN1_INTEGER_dup(ptr noundef nonnull %55) #7
  %58 = getelementptr inbounds nuw i8, ptr %.031, i64 64
  store ptr %57, ptr %58, align 8, !tbaa !22
  %59 = icmp eq ptr %57, null
  br i1 %59, label %63, label %96

60:                                               ; preds = %50
  %61 = load i32, ptr %.031, align 8, !tbaa !24
  %62 = and i32 %61, -33
  store i32 %62, ptr %.031, align 8, !tbaa !24
  br label %96

63:                                               ; preds = %56, %45, %39, %32, %27
  br i1 %.not39, label %TS_VERIFY_CTX_free.exit, label %TS_VERIFY_CTX_cleanup.exit44

TS_VERIFY_CTX_cleanup.exit44:                     ; preds = %63
  %64 = getelementptr inbounds nuw i8, ptr %1, i64 8
  %65 = load ptr, ptr %64, align 8, !tbaa !3
  tail call void @X509_STORE_free(ptr noundef %65) #7
  %66 = getelementptr inbounds nuw i8, ptr %1, i64 16
  %67 = load ptr, ptr %66, align 8, !tbaa !17
  tail call void @OSSL_STACK_OF_X509_free(ptr noundef %67) #7
  %68 = getelementptr inbounds nuw i8, ptr %1, i64 24
  %69 = load ptr, ptr %68, align 8, !tbaa !18
  tail call void @ASN1_OBJECT_free(ptr noundef %69) #7
  %70 = getelementptr inbounds nuw i8, ptr %1, i64 32
  %71 = load ptr, ptr %70, align 8, !tbaa !19
  tail call void @X509_ALGOR_free(ptr noundef %71) #7
  %72 = getelementptr inbounds nuw i8, ptr %1, i64 40
  %73 = load ptr, ptr %72, align 8, !tbaa !20
  tail call void @CRYPTO_free(ptr noundef %73, ptr noundef nonnull @.str, i32 noundef 126) #7
  %74 = getelementptr inbounds nuw i8, ptr %1, i64 56
  %75 = load ptr, ptr %74, align 8, !tbaa !21
  tail call void @BIO_free_all(ptr noundef %75) #7
  %76 = getelementptr inbounds nuw i8, ptr %1, i64 64
  %77 = load ptr, ptr %76, align 8, !tbaa !22
  tail call void @ASN1_INTEGER_free(ptr noundef %77) #7
  %78 = getelementptr inbounds nuw i8, ptr %1, i64 72
  %79 = load ptr, ptr %78, align 8, !tbaa !23
  tail call void @GENERAL_NAME_free(ptr noundef %79) #7
  tail call void @llvm.memset.p0.i64(ptr noundef nonnull align 8 dereferenceable(80) %1, i8 0, i64 80, i1 false)
  br label %96

TS_VERIFY_CTX_free.exit:                          ; preds = %63
  %80 = getelementptr inbounds nuw i8, ptr %.031, i64 8
  %81 = load ptr, ptr %80, align 8, !tbaa !3
  tail call void @X509_STORE_free(ptr noundef %81) #7
  %82 = getelementptr inbounds nuw i8, ptr %.031, i64 16
  %83 = load ptr, ptr %82, align 8, !tbaa !17
  tail call void @OSSL_STACK_OF_X509_free(ptr noundef %83) #7
  %84 = getelementptr inbounds nuw i8, ptr %.031, i64 24
  %85 = load ptr, ptr %84, align 8, !tbaa !18
  tail call void @ASN1_OBJECT_free(ptr noundef %85) #7
  %86 = getelementptr inbounds nuw i8, ptr %.031, i64 32
  %87 = load ptr, ptr %86, align 8, !tbaa !19
  tail call void @X509_ALGOR_free(ptr noundef %87) #7
  %88 = getelementptr inbounds nuw i8, ptr %.031, i64 40
  %89 = load ptr, ptr %88, align 8, !tbaa !20
  tail call void @CRYPTO_free(ptr noundef %89, ptr noundef nonnull @.str, i32 noundef 126) #7
  %90 = getelementptr inbounds nuw i8, ptr %.031, i64 56
  %91 = load ptr, ptr %90, align 8, !tbaa !21
  tail call void @BIO_free_all(ptr noundef %91) #7
  %92 = getelementptr inbounds nuw i8, ptr %.031, i64 64
  %93 = load ptr, ptr %92, align 8, !tbaa !22
  tail call void @ASN1_INTEGER_free(ptr noundef %93) #7
  %94 = getelementptr inbounds nuw i8, ptr %.031, i64 72
  %95 = load ptr, ptr %94, align 8, !tbaa !23
  tail call void @GENERAL_NAME_free(ptr noundef %95) #7
  tail call void @llvm.memset.p0.i64(ptr noundef nonnull align 8 dereferenceable(80) %.031, i8 0, i64 80, i1 false)
  tail call void @CRYPTO_free(ptr noundef nonnull %.031, ptr noundef nonnull @.str, i32 noundef 34) #7
  br label %96

96:                                               ; preds = %TS_VERIFY_CTX_cleanup.exit44, %TS_VERIFY_CTX_free.exit, %60, %56, %21
  %.0 = phi ptr [ null, %21 ], [ %.031, %56 ], [ %.031, %60 ], [ null, %TS_VERIFY_CTX_free.exit ], [ null, %TS_VERIFY_CTX_cleanup.exit44 ]
  ret ptr %.0
}